; Function Attrs: mustprogress nounwind uwtable
define hidden void @_ZN22DiscoveredListIterator7enqueueEv(ptr nocapture noundef nonnull readonly align 8 dereferenceable(96) %0) local_unnamed_addr #0 align 2 {
  %2 = getelementptr inbounds i8, ptr %0, i64 8
  %3 = load ptr, ptr %2, align 8
  %4 = load ptr, ptr %0, align 8
  %5 = load i8, ptr @UseCompressedOops, align 1
  %6 = trunc i8 %5 to i1
  %.idx.i = select i1 %6, i64 8, i64 0
  %7 = getelementptr inbounds i8, ptr %4, i64 %.idx.i
  %.not = icmp eq ptr %3, %7
  br i1 %.not, label %15, label %8

8:                                                ; preds = %1
  %9 = getelementptr inbounds i8, ptr %0, i64 72
  %10 = load ptr, ptr %9, align 8
  %11 = getelementptr inbounds i8, ptr %0, i64 24
  %12 = load ptr, ptr %11, align 8
  %13 = load ptr, ptr %10, align 8
  %14 = load ptr, ptr %13, align 8
  tail call void %14(ptr noundef nonnull align 8 dereferenceable(8) %10, ptr noundef %3, ptr noundef %12) #17
  br label %_ZN6AccessILm2048EE9oop_storeIP12HeapWordImplP7oopDescEEvPT_T0_.exit

15:                                               ; preds = %1
  %16 = getelementptr inbounds i8, ptr %0, i64 24
  %17 = load ptr, ptr %16, align 8
  br i1 %6, label %18, label %29

18:                                               ; preds = %15
  %19 = icmp eq ptr %17, null
  %20 = load ptr, ptr @_ZN14CompressedOops11_narrow_oopE, align 8
  %21 = ptrtoint ptr %17 to i64
  %22 = ptrtoint ptr %20 to i64
  %23 = sub i64 %21, %22
  %24 = load i32, ptr getelementptr inbounds (i8, ptr @_ZN14CompressedOops11_narrow_oopE, i64 8), align 8
  %25 = zext nneg i32 %24 to i64
  %26 = lshr i64 %23, %25
  %27 = trunc i64 %26 to i32
  %28 = select i1 %19, i32 0, i32 %27
  store i32 %28, ptr %3, align 4
  br label %_ZN6AccessILm2048EE9oop_storeIP12HeapWordImplP7oopDescEEvPT_T0_.exit

29:                                               ; preds = %15
  store ptr %17, ptr %3, align 8
  br label %_ZN6AccessILm2048EE9oop_storeIP12HeapWordImplP7oopDescEEvPT_T0_.exit

_ZN6AccessILm2048EE9oop_storeIP12HeapWordImplP7oopDescEEvPT_T0_.exit: ; preds = %29, %18, %8
  ret void
}